target datalayout = "e-m:e-p270:32:32-p271:32:32-p272:64:64-i64:64-i128:128-f80:128-n8:16:32:64-S128"
target triple = "x86_64-pc-linux-gnu"

; Function Attrs: nounwind uwtable
define internal i32 @auxupvalue(ptr noundef %0, i32 noundef %1) #0 {
  %3 = alloca i32, align 4
  %4 = alloca ptr, align 8
  %5 = alloca i32, align 4
  %6 = alloca ptr, align 8
  %7 = alloca i32, align 4
  %8 = alloca i32, align 4
  store ptr %0, ptr %4, align 8, !tbaa !4
  store i32 %1, ptr %5, align 4, !tbaa !11
  call void @llvm.lifetime.start.p0(i64 8, ptr %6) #4
  call void @llvm.lifetime.start.p0(i64 4, ptr %7) #4
  %9 = load ptr, ptr %4, align 8, !tbaa !4
  %10 = call i64 @luaL_checkinteger(ptr noundef %9, i32 noundef 2)
  %11 = trunc i64 %10 to i32
  store i32 %11, ptr %7, align 4, !tbaa !11
  %12 = load ptr, ptr %4, align 8, !tbaa !4
  call void @luaL_checktype(ptr noundef %12, i32 noundef 1, i32 noundef 6)
  %13 = load ptr, ptr %4, align 8, !tbaa !4
  %14 = call i32 @lua_iscfunction(ptr noundef %13, i32 noundef 1)
  %15 = icmp ne i32 %14, 0
  br i1 %15, label %16, label %17

16:                                               ; preds = %2
  store i32 0, ptr %3, align 4
  store i32 1, ptr %8, align 4
  br label %42

17:                                               ; preds = %2
  %18 = load i32, ptr %5, align 4, !tbaa !11
  %19 = icmp ne i32 %18, 0
  br i1 %19, label %20, label %24

20:                                               ; preds = %17
  %21 = load ptr, ptr %4, align 8, !tbaa !4
  %22 = load i32, ptr %7, align 4, !tbaa !11
  %23 = call ptr @lua_getupvalue(ptr noundef %21, i32 noundef 1, i32 noundef %22)
  br label %28

24:                                               ; preds = %17
  %25 = load ptr, ptr %4, align 8, !tbaa !4
  %26 = load i32, ptr %7, align 4, !tbaa !11
  %27 = call ptr @lua_setupvalue(ptr noundef %25, i32 noundef 1, i32 noundef %26)
  br label %28

28:                                               ; preds = %24, %20
  %29 = phi ptr [ %23, %20 ], [ %27, %24 ]
  store ptr %29, ptr %6, align 8, !tbaa !14
  %30 = load ptr, ptr %6, align 8, !tbaa !14
  %31 = icmp eq ptr %30, null
  br i1 %31, label %32, label %33

32:                                               ; preds = %28
  store i32 0, ptr %3, align 4
  store i32 1, ptr %8, align 4
  br label %42

33:                                               ; preds = %28
  %34 = load ptr, ptr %4, align 8, !tbaa !4
  %35 = load ptr, ptr %6, align 8, !tbaa !14
  call void @lua_pushstring(ptr noundef %34, ptr noundef %35)
  %36 = load ptr, ptr %4, align 8, !tbaa !4
  %37 = load i32, ptr %5, align 4, !tbaa !11
  %38 = add nsw i32 %37, 1
  %39 = sub nsw i32 0, %38
  call void @lua_insert(ptr noundef %36, i32 noundef %39)
  %40 = load i32, ptr %5, align 4, !tbaa !11
  %41 = add nsw i32 %40, 1
  store i32 %41, ptr %3, align 4
  store i32 1, ptr %8, align 4
  br label %42

42:                                               ; preds = %33, %32, %16
  call void @llvm.lifetime.end.p0(i64 4, ptr %7) #4
  call void @llvm.lifetime.end.p0(i64 8, ptr %6) #4
  %43 = load i32, ptr %3, align 4
  ret i32 %43
}

; Function Attrs: nounwind uwtable
define internal i32 @db_getupvalue(ptr noundef %0) #0 {
  %2 = alloca ptr, align 8
  store ptr %0, ptr %2, align 8, !tbaa !4
  %3 = load ptr, ptr %2, align 8, !tbaa !4
  %4 = call i32 @auxupvalue(ptr noundef %3, i32 noundef 1)
  ret i32 %4
}